; Function Attrs: mustprogress nofree norecurse nosync nounwind willreturn memory(argmem: read) uwtable
define noundef zeroext i1 @_ZNK32pxrInternal_v0_24__pxrReserved__7GfVec3feqERKNS_7GfVec3iE(ptr nocapture noundef nonnull readonly align 4 dereferenceable(12) %0, ptr nocapture noundef nonnull readonly align 4 dereferenceable(12) %1) local_unnamed_addr #2 align 2 {
  %3 = load float, ptr %0, align 4
  %4 = load i32, ptr %1, align 4
  %5 = sitofp i32 %4 to float
  %6 = fcmp oeq float %3, %5
  br i1 %6, label %7, label %21

7:                                                ; preds = %2
  %8 = getelementptr inbounds i8, ptr %0, i64 4
  %9 = load float, ptr %8, align 4
  %10 = getelementptr inbounds i8, ptr %1, i64 4
  %11 = load i32, ptr %10, align 4
  %12 = sitofp i32 %11 to float
  %13 = fcmp oeq float %9, %12
  br i1 %13, label %14, label %21

14:                                               ; preds = %7
  %15 = getelementptr inbounds i8, ptr %0, i64 8
  %16 = load float, ptr %15, align 4
  %17 = getelementptr inbounds i8, ptr %1, i64 8
  %18 = load i32, ptr %17, align 4
  %19 = sitofp i32 %18 to float
  %20 = fcmp oeq float %16, %19
  br label %21

21:                                               ; preds = %14, %7, %2
  %22 = phi i1 [ false, %7 ], [ false, %2 ], [ %20, %14 ]
  ret i1 %22
}